target datalayout = "e-m:e-p270:32:32-p271:32:32-p272:64:64-i64:64-i128:128-f80:128-n8:16:32:64-S128"
target triple = "x86_64-pc-linux-gnu"

%struct.DepsLog = type { i8, ptr, %"class.std::__cxx11::basic_string", %"class.std::vector", %"class.std::vector.3" }
%"class.std::__cxx11::basic_string" = type { %"struct.std::__cxx11::basic_string<char>::_Alloc_hider", i64, %union.anon }
%"struct.std::__cxx11::basic_string<char>::_Alloc_hider" = type { ptr }
%union.anon = type { i64, [8 x i8] }
%"class.std::vector" = type { %"struct.std::_Vector_base" }
%"struct.std::_Vector_base" = type { %"struct.std::_Vector_base<Node *, std::allocator<Node *>>::_Vector_impl" }
%"struct.std::_Vector_base<Node *, std::allocator<Node *>>::_Vector_impl" = type { %"struct.std::_Vector_base<Node *, std::allocator<Node *>>::_Vector_impl_data" }
%"struct.std::_Vector_base<Node *, std::allocator<Node *>>::_Vector_impl_data" = type { ptr, ptr, ptr }
%"class.std::vector.3" = type { %"struct.std::_Vector_base.4" }
%"struct.std::_Vector_base.4" = type { %"struct.std::_Vector_base<DepsLog::Deps *, std::allocator<DepsLog::Deps *>>::_Vector_impl" }
%"struct.std::_Vector_base<DepsLog::Deps *, std::allocator<DepsLog::Deps *>>::_Vector_impl" = type { %"struct.std::_Vector_base<DepsLog::Deps *, std::allocator<DepsLog::Deps *>>::_Vector_impl_data" }
%"struct.std::_Vector_base<DepsLog::Deps *, std::allocator<DepsLog::Deps *>>::_Vector_impl_data" = type { ptr, ptr, ptr }
%"struct.DepsLog::Deps" = type { i64, i32, ptr }

; Function Attrs: mustprogress nounwind uwtable
define linkonce_odr dso_local noundef nonnull align 8 dereferenceable(8) ptr @_ZNSt6vectorIP4NodeSaIS1_EEixEm(ptr noundef nonnull align 8 dereferenceable(24) %0, i64 noundef %1) #0 comdat align 2 {
  %3 = alloca ptr, align 8
  %4 = alloca i64, align 8
  store ptr %0, ptr %3, align 8, !tbaa !32
  store i64 %1, ptr %4, align 8, !tbaa !59
  %5 = load ptr, ptr %3, align 8
  %6 = getelementptr inbounds nuw %"struct.std::_Vector_base", ptr %5, i32 0, i32 0
  %7 = getelementptr inbounds nuw %"struct.std::_Vector_base<Node *, std::allocator<Node *>>::_Vector_impl_data", ptr %6, i32 0, i32 0
  %8 = load ptr, ptr %7, align 8, !tbaa !34
  %9 = load i64, ptr %4, align 8, !tbaa !59
  %10 = getelementptr inbounds nuw ptr, ptr %8, i64 %9
  ret ptr %10
}

; Function Attrs: mustprogress nounwind uwtable
define linkonce_odr dso_local noundef nonnull align 8 dereferenceable(8) ptr @_ZNSt6vectorIPN7DepsLog4DepsESaIS2_EEixEm(ptr noundef nonnull align 8 dereferenceable(24) %0, i64 noundef %1) #0 comdat align 2 {
  %3 = alloca ptr, align 8
  %4 = alloca i64, align 8
  store ptr %0, ptr %3, align 8, !tbaa !28
  store i64 %1, ptr %4, align 8, !tbaa !59
  %5 = load ptr, ptr %3, align 8
  %6 = getelementptr inbounds nuw %"struct.std::_Vector_base.4", ptr %5, i32 0, i32 0
  %7 = getelementptr inbounds nuw %"struct.std::_Vector_base<DepsLog::Deps *, std::allocator<DepsLog::Deps *>>::_Vector_impl_data", ptr %6, i32 0, i32 0
  %8 = load ptr, ptr %7, align 8, !tbaa !30
  %9 = load i64, ptr %4, align 8, !tbaa !59
  %10 = getelementptr inbounds nuw ptr, ptr %8, i64 %9
  ret ptr %10
}

; Function Attrs: mustprogress nounwind uwtable
define linkonce_odr dso_local noundef i64 @_ZNKSt6vectorIPN7DepsLog4DepsESaIS2_EE4sizeEv(ptr noundef nonnull align 8 dereferenceable(24) %0) #0 comdat align 2 {
  %2 = alloca ptr, align 8
  store ptr %0, ptr %2, align 8, !tbaa !28
  %3 = load ptr, ptr %2, align 8
  %4 = getelementptr inbounds nuw %"struct.std::_Vector_base.4", ptr %3, i32 0, i32 0
  %5 = getelementptr inbounds nuw %"struct.std::_Vector_base<DepsLog::Deps *, std::allocator<DepsLog::Deps *>>::_Vector_impl_data", ptr %4, i32 0, i32 1
  %6 = load ptr, ptr %5, align 8, !tbaa !31
  %7 = getelementptr inbounds nuw %"struct.std::_Vector_base.4", ptr %3, i32 0, i32 0
  %8 = getelementptr inbounds nuw %"struct.std::_Vector_base<DepsLog::Deps *, std::allocator<DepsLog::Deps *>>::_Vector_impl_data", ptr %7, i32 0, i32 0
  %9 = load ptr, ptr %8, align 8, !tbaa !30
  %10 = ptrtoint ptr %6 to i64
  %11 = ptrtoint ptr %9 to i64
  %12 = sub i64 %10, %11
  %13 = sdiv exact i64 %12, 8
  ret i64 %13
}

; Function Attrs: mustprogress nounwind uwtable
define dso_local noundef ptr @_ZN7DepsLog23GetFirstReverseDepsNodeEP4Node(ptr noundef nonnull align 8 dereferenceable(96) %0, ptr noundef %1) #0 align 2 {
  %3 = alloca ptr, align 8
  %4 = alloca ptr, align 8
  %5 = alloca ptr, align 8
  %6 = alloca i64, align 8
  %7 = alloca i32, align 4
  %8 = alloca ptr, align 8
  %9 = alloca i32, align 4
  store ptr %0, ptr %4, align 8, !tbaa !4
  store ptr %1, ptr %5, align 8, !tbaa !46
  %10 = load ptr, ptr %4, align 8
  call void @llvm.lifetime.start.p0(i64 8, ptr %6) #8
  store i64 0, ptr %6, align 8, !tbaa !59
  br label %11

11:                                               ; preds = %58, %2
  %12 = load i64, ptr %6, align 8, !tbaa !59
  %13 = getelementptr inbounds nuw %struct.DepsLog, ptr %10, i32 0, i32 4
  %14 = call noundef i64 @_ZNKSt6vectorIPN7DepsLog4DepsESaIS2_EE4sizeEv(ptr noundef nonnull align 8 dereferenceable(24) %13) #8
  %15 = icmp ult i64 %12, %14
  br i1 %15, label %17, label %16

16:                                               ; preds = %11
  store i32 2, ptr %7, align 4
  br label %61

17:                                               ; preds = %11
  call void @llvm.lifetime.start.p0(i64 8, ptr %8) #8
  %18 = getelementptr inbounds nuw %struct.DepsLog, ptr %10, i32 0, i32 4
  %19 = load i64, ptr %6, align 8, !tbaa !59
  %20 = call noundef nonnull align 8 dereferenceable(8) ptr @_ZNSt6vectorIPN7DepsLog4DepsESaIS2_EEixEm(ptr noundef nonnull align 8 dereferenceable(24) %18, i64 noundef %19) #8
  %21 = load ptr, ptr %20, align 8, !tbaa !52
  store ptr %21, ptr %8, align 8, !tbaa !52
  %22 = load ptr, ptr %8, align 8, !tbaa !52
  %23 = icmp ne ptr %22, null
  br i1 %23, label %25, label %24

24:                                               ; preds = %17
  store i32 4, ptr %7, align 4
  br label %55

25:                                               ; preds = %17
  call void @llvm.lifetime.start.p0(i64 4, ptr %9) #8
  store i32 0, ptr %9, align 4, !tbaa !50
  br label %26

26:                                               ; preds = %49, %25
  %27 = load i32, ptr %9, align 4, !tbaa !50
  %28 = load ptr, ptr %8, align 8, !tbaa !52
  %29 = getelementptr inbounds nuw %"struct.DepsLog::Deps", ptr %28, i32 0, i32 1
  %30 = load i32, ptr %29, align 8, !tbaa !56
  %31 = icmp slt i32 %27, %30
  br i1 %31, label %33, label %32

32:                                               ; preds = %26
  store i32 5, ptr %7, align 4
  br label %52

33:                                               ; preds = %26
  %34 = load ptr, ptr %8, align 8, !tbaa !52
  %35 = getelementptr inbounds nuw %"struct.DepsLog::Deps", ptr %34, i32 0, i32 2
  %36 = load ptr, ptr %35, align 8, !tbaa !57
  %37 = load i32, ptr %9, align 4, !tbaa !50
  %38 = sext i32 %37 to i64
  %39 = getelementptr inbounds ptr, ptr %36, i64 %38
  %40 = load ptr, ptr %39, align 8, !tbaa !46
  %41 = load ptr, ptr %5, align 8, !tbaa !46
  %42 = icmp eq ptr %40, %41
  br i1 %42, label %43, label %48

43:                                               ; preds = %33
  %44 = getelementptr inbounds nuw %struct.DepsLog, ptr %10, i32 0, i32 3
  %45 = load i64, ptr %6, align 8, !tbaa !59
  %46 = call noundef nonnull align 8 dereferenceable(8) ptr @_ZNSt6vectorIP4NodeSaIS1_EEixEm(ptr noundef nonnull align 8 dereferenceable(24) %44, i64 noundef %45) #8
  %47 = load ptr, ptr %46, align 8, !tbaa !46
  store ptr %47, ptr %3, align 8
  store i32 1, ptr %7, align 4
  br label %52

48:                                               ; preds = %33
  br label %49

49:                                               ; preds = %48
  %50 = load i32, ptr %9, align 4, !tbaa !50
  %51 = add nsw i32 %50, 1
  store i32 %51, ptr %9, align 4, !tbaa !50
  br label %26, !llvm.loop !94

52:                                               ; preds = %43, %32
  call void @llvm.lifetime.end.p0(i64 4, ptr %9) #8
  %53 = load i32, ptr %7, align 4
  switch i32 %53, label %55 [
    i32 5, label %54
  ]

54:                                               ; preds = %52
  store i32 0, ptr %7, align 4
  br label %55

55:                                               ; preds = %54, %52, %24
  call void @llvm.lifetime.end.p0(i64 8, ptr %8) #8
  %56 = load i32, ptr %7, align 4
  switch i32 %56, label %61 [
    i32 0, label %57
    i32 4, label %58
  ]

57:                                               ; preds = %55
  br label %58

58:                                               ; preds = %57, %55
  %59 = load i64, ptr %6, align 8, !tbaa !59
  %60 = add i64 %59, 1
  store i64 %60, ptr %6, align 8, !tbaa !59
  br label %11, !llvm.loop !95

61:                                               ; preds = %55, %16
  call void @llvm.lifetime.end.p0(i64 8, ptr %6) #8
  %62 = load i32, ptr %7, align 4
  switch i32 %62, label %66 [
    i32 2, label %63
    i32 1, label %64
  ]

63:                                               ; preds = %61
  store ptr null, ptr %3, align 8
  br label %64

64:                                               ; preds = %63, %61
  %65 = load ptr, ptr %3, align 8
  ret ptr %65

66:                                               ; preds = %61
  unreachable
}