; Function Attrs: mustprogress nofree norecurse nosync nounwind willreturn memory(read, inaccessiblemem: none) uwtable
define dso_local noundef ptr @_ZN7DepsLog23GetFirstReverseDepsNodeEP4Node(ptr noundef nonnull readonly align 8 captures(none) dereferenceable(96) %0, ptr noundef readnone %1) local_unnamed_addr #5 align 2 {
  %3 = getelementptr inbounds nuw i8, ptr %0, i64 72
  %4 = getelementptr inbounds nuw i8, ptr %0, i64 80
  %5 = load ptr, ptr %4, align 8, !tbaa !47
  %6 = load ptr, ptr %3, align 8, !tbaa !26
  %.not2530.not = icmp eq ptr %5, %6
  br i1 %.not2530.not, label %.loopexit26, label %.lr.ph33.preheader

.lr.ph33.preheader:                               ; preds = %2
  %7 = ptrtoint ptr %5 to i64
  %8 = ptrtoint ptr %6 to i64
  %9 = sub i64 %7, %8
  %10 = ashr exact i64 %9, 3
  %umax = tail call i64 @llvm.umax.i64(i64 %10, i64 1)
  br label %.lr.ph33

.lr.ph33:                                         ; preds = %.lr.ph33.preheader, %.loopexit
  %.01931 = phi i64 [ %27, %.loopexit ], [ 0, %.lr.ph33.preheader ]
  %11 = getelementptr inbounds nuw ptr, ptr %6, i64 %.01931
  %12 = load ptr, ptr %11, align 8, !tbaa !62
  %.not = icmp eq ptr %12, null
  br i1 %.not, label %.loopexit, label %.preheader

.preheader:                                       ; preds = %.lr.ph33
  %13 = getelementptr inbounds nuw i8, ptr %12, i64 8
  %14 = load i32, ptr %13, align 8, !tbaa !66
  %.not2128 = icmp sgt i32 %14, 0
  br i1 %.not2128, label %.lr.ph, label %.loopexit

.lr.ph:                                           ; preds = %.preheader
  %15 = getelementptr inbounds nuw i8, ptr %12, i64 16
  %16 = load ptr, ptr %15, align 8, !tbaa !67
  %wide.trip.count = zext nneg i32 %14 to i64
  br label %18

17:                                               ; preds = %18
  %indvars.iv.next = add nuw nsw i64 %indvars.iv, 1
  %exitcond.not = icmp eq i64 %indvars.iv.next, %wide.trip.count
  br i1 %exitcond.not, label %.loopexit, label %18, !llvm.loop !76

18:                                               ; preds = %.lr.ph, %17
  %indvars.iv = phi i64 [ 0, %.lr.ph ], [ %indvars.iv.next, %17 ]
  %19 = getelementptr inbounds nuw ptr, ptr %16, i64 %indvars.iv
  %20 = load ptr, ptr %19, align 8, !tbaa !48
  %21 = icmp eq ptr %20, %1
  br i1 %21, label %22, label %17

22:                                               ; preds = %18
  %23 = getelementptr inbounds nuw i8, ptr %0, i64 48
  %24 = load ptr, ptr %23, align 8, !tbaa !28
  %25 = getelementptr inbounds nuw ptr, ptr %24, i64 %.01931
  %26 = load ptr, ptr %25, align 8, !tbaa !48
  br label %.loopexit26

.loopexit:                                        ; preds = %17, %.preheader, %.lr.ph33
  %27 = add nuw i64 %.01931, 1
  %exitcond36.not = icmp eq i64 %27, %umax
  br i1 %exitcond36.not, label %.loopexit26, label %.lr.ph33, !llvm.loop !77

.loopexit26:                                      ; preds = %.loopexit, %2, %22
  %spec.select = phi ptr [ %26, %22 ], [ null, %2 ], [ null, %.loopexit ]
  ret ptr %spec.select
}